target datalayout = "e-m:e-p270:32:32-p271:32:32-p272:64:64-i64:64-i128:128-f80:128-n8:16:32:64-S128"
target triple = "x86_64-pc-linux-gnu"

%struct._GdkEventButton = type { i32, ptr, i8, i32, double, double, ptr, i32, i32, ptr, double, double }

@.str.36 = private unnamed_addr constant [19 x i8] c"button-press-event\00", align 1

; Function Attrs: nounwind uwtable
define void @dt_gui_simulate_button_event(ptr noundef %0, i32 noundef %1, i32 noundef %2) #0 {
  %4 = alloca ptr, align 8
  %5 = alloca i32, align 4
  %6 = alloca i32, align 4
  %7 = alloca i32, align 4
  %8 = alloca %struct._GdkEventButton, align 8
  store ptr %0, ptr %4, align 8, !tbaa !6
  store i32 %1, ptr %5, align 4, !tbaa !17
  store i32 %2, ptr %6, align 4, !tbaa !17
  call void @llvm.lifetime.start.p0(i64 4, ptr %7) #15
  store i32 0, ptr %7, align 4, !tbaa !17
  call void @llvm.lifetime.start.p0(i64 80, ptr %8) #15
  call void @llvm.memset.p0.i64(ptr align 8 %8, i8 0, i64 80, i1 false)
  %9 = load i32, ptr %5, align 4, !tbaa !17
  %10 = getelementptr inbounds nuw %struct._GdkEventButton, ptr %8, i32 0, i32 0
  store i32 %9, ptr %10, align 8, !tbaa !165
  %11 = load ptr, ptr %4, align 8, !tbaa !6
  %12 = call ptr @gtk_widget_get_window(ptr noundef %11)
  %13 = getelementptr inbounds nuw %struct._GdkEventButton, ptr %8, i32 0, i32 1
  store ptr %12, ptr %13, align 8, !tbaa !358
  %14 = getelementptr inbounds nuw %struct._GdkEventButton, ptr %8, i32 0, i32 2
  store i8 1, ptr %14, align 8, !tbaa !359
  %15 = getelementptr inbounds nuw %struct._GdkEventButton, ptr %8, i32 0, i32 3
  store i32 0, ptr %15, align 4, !tbaa !360
  %16 = getelementptr inbounds nuw %struct._GdkEventButton, ptr %8, i32 0, i32 4
  store double 0.000000e+00, ptr %16, align 8, !tbaa !161
  %17 = getelementptr inbounds nuw %struct._GdkEventButton, ptr %8, i32 0, i32 5
  store double 0.000000e+00, ptr %17, align 8, !tbaa !163
  %18 = load i32, ptr %6, align 4, !tbaa !17
  %19 = getelementptr inbounds nuw %struct._GdkEventButton, ptr %8, i32 0, i32 8
  store i32 %18, ptr %19, align 4, !tbaa !164
  %20 = call ptr @gdk_display_get_default()
  %21 = call ptr @gdk_display_get_default_seat(ptr noundef %20)
  %22 = call ptr @gdk_seat_get_pointer(ptr noundef %21)
  %23 = getelementptr inbounds nuw %struct._GdkEventButton, ptr %8, i32 0, i32 9
  store ptr %22, ptr %23, align 8, !tbaa !361
  %24 = getelementptr inbounds nuw %struct._GdkEventButton, ptr %8, i32 0, i32 1
  %25 = load ptr, ptr %24, align 8, !tbaa !358
  %26 = icmp ne ptr %25, null
  br i1 %26, label %27, label %31

27:                                               ; preds = %3
  %28 = getelementptr inbounds nuw %struct._GdkEventButton, ptr %8, i32 0, i32 1
  %29 = load ptr, ptr %28, align 8, !tbaa !358
  %30 = call ptr @g_object_ref(ptr noundef %29)
  br label %31

31:                                               ; preds = %27, %3
  %32 = load ptr, ptr %4, align 8, !tbaa !6
  %33 = call ptr @g_type_check_instance_cast(ptr noundef %32, i64 noundef 80)
  call void (ptr, ptr, ...) @g_signal_emit_by_name(ptr noundef %33, ptr noundef @.str.36, ptr noundef %8, ptr noundef %7, ptr noundef null)
  %34 = getelementptr inbounds nuw %struct._GdkEventButton, ptr %8, i32 0, i32 1
  %35 = load ptr, ptr %34, align 8, !tbaa !358
  %36 = icmp ne ptr %35, null
  br i1 %36, label %37, label %40

37:                                               ; preds = %31
  %38 = getelementptr inbounds nuw %struct._GdkEventButton, ptr %8, i32 0, i32 1
  %39 = load ptr, ptr %38, align 8, !tbaa !358
  call void @g_object_unref(ptr noundef %39)
  br label %40

40:                                               ; preds = %37, %31
  call void @llvm.lifetime.end.p0(i64 80, ptr %8) #15
  call void @llvm.lifetime.end.p0(i64 4, ptr %7) #15
  ret void
}