; Function Attrs: nounwind uwtable
define void @dt_gui_simulate_button_event(ptr noundef %0, i32 noundef %1, i32 noundef %2) local_unnamed_addr #0 {
  %4 = alloca i32, align 4
  %5 = alloca %struct._GdkEventButton, align 8
  call void @llvm.lifetime.start.p0(i64 4, ptr nonnull %4) #18
  store i32 0, ptr %4, align 4, !tbaa !62
  call void @llvm.lifetime.start.p0(i64 80, ptr nonnull %5) #18
  call void @llvm.memset.p0.i64(ptr noundef nonnull align 8 dereferenceable(80) %5, i8 0, i64 80, i1 false)
  store i32 %1, ptr %5, align 8, !tbaa !142
  %6 = tail call ptr @gtk_widget_get_window(ptr noundef %0) #18
  %7 = getelementptr inbounds nuw i8, ptr %5, i64 8
  store ptr %6, ptr %7, align 8, !tbaa !276
  %8 = getelementptr inbounds nuw i8, ptr %5, i64 16
  store i8 1, ptr %8, align 8, !tbaa !277
  %9 = getelementptr inbounds nuw i8, ptr %5, i64 20
  %10 = getelementptr inbounds nuw i8, ptr %5, i64 52
  call void @llvm.memset.p0.i64(ptr noundef nonnull align 4 dereferenceable(20) %9, i8 0, i64 20, i1 false)
  store i32 %2, ptr %10, align 4, !tbaa !141
  %11 = tail call ptr @gdk_display_get_default() #18
  %12 = tail call ptr @gdk_display_get_default_seat(ptr noundef %11) #18
  %13 = tail call ptr @gdk_seat_get_pointer(ptr noundef %12) #18
  %14 = getelementptr inbounds nuw i8, ptr %5, i64 56
  store ptr %13, ptr %14, align 8, !tbaa !278
  %.not = icmp eq ptr %6, null
  br i1 %.not, label %17, label %15

15:                                               ; preds = %3
  %16 = tail call ptr @g_object_ref(ptr noundef nonnull %6) #18
  br label %17

17:                                               ; preds = %15, %3
  %18 = tail call ptr @g_type_check_instance_cast(ptr noundef %0, i64 noundef 80) #18
  call void (ptr, ptr, ...) @g_signal_emit_by_name(ptr noundef %18, ptr noundef nonnull @.str.36, ptr noundef nonnull %5, ptr noundef nonnull %4, ptr noundef null) #18
  %19 = load ptr, ptr %7, align 8, !tbaa !276
  %.not4 = icmp eq ptr %19, null
  br i1 %.not4, label %21, label %20

20:                                               ; preds = %17
  call void @g_object_unref(ptr noundef nonnull %19) #18
  br label %21

21:                                               ; preds = %20, %17
  call void @llvm.lifetime.end.p0(i64 80, ptr nonnull %5) #18
  call void @llvm.lifetime.end.p0(i64 4, ptr nonnull %4) #18
  ret void
}